; Function Attrs: nofree nounwind sspstrong memory(readwrite, inaccessiblemem: none) uwtable
define dso_local void @rb_st_clear(ptr noundef captures(none) initializes((16, 24), (32, 48)) %0) local_unnamed_addr #4 {
  %2 = getelementptr inbounds nuw i8, ptr %0, i64 16
  store i64 0, ptr %2, align 8, !tbaa !27
  %3 = getelementptr inbounds nuw i8, ptr %0, i64 32
  %4 = getelementptr inbounds nuw i8, ptr %0, i64 24
  tail call void @llvm.memset.p0.i64(ptr noundef nonnull align 8 dereferenceable(16) %3, i8 0, i64 16, i1 false)
  %5 = load ptr, ptr %4, align 8, !tbaa !25
  %.not.i = icmp eq ptr %5, null
  br i1 %.not.i, label %make_tab_empty.exit, label %6

6:                                                ; preds = %1
  %.val.i = load i8, ptr %0, align 8, !tbaa !18
  %7 = zext i8 %.val.i to i64
  %8 = getelementptr [63 x %struct.st_features], ptr @features, i64 0, i64 %7, i32 3
  %9 = load i64, ptr %8, align 8, !tbaa !24
  %10 = shl i64 %9, 3
  tail call void @llvm.memset.p0.i64(ptr noundef nonnull align 1 %5, i8 noundef 0, i64 noundef %10, i1 noundef false) #25
  br label %make_tab_empty.exit

make_tab_empty.exit:                              ; preds = %1, %6
  %11 = getelementptr inbounds nuw i8, ptr %0, i64 4
  %12 = load i32, ptr %11, align 4, !tbaa !28
  %13 = add i32 %12, 1
  store i32 %13, ptr %11, align 4, !tbaa !28
  ret void
}